; ModuleID = '14/234.c'
source_filename = "14/234.c"
target datalayout = "e-m:e-p270:32:32-p271:32:32-p272:64:64-i64:64-f80:128-n8:16:32:64-S128"
target triple = "x86_64-pc-linux-gnu"

%struct.student = type { i32, i32, i32, i32 }

@.str = private unnamed_addr constant [3 x i8] c"%d\00", align 1
@.str.1 = private unnamed_addr constant [9 x i8] c"%d %d %d\00", align 1
@.str.2 = private unnamed_addr constant [7 x i8] c"%d %d\0A\00", align 1

; Function Attrs: noinline nounwind uwtable
define dso_local i32 @main() #0 {
  %1 = alloca i32, align 4
  %2 = alloca i32, align 4
  %3 = alloca i32, align 4
  %4 = alloca i32, align 4
  %5 = alloca i32, align 4
  %6 = alloca i32, align 4
  %7 = alloca i32, align 4
  %8 = alloca [100000 x %struct.student], align 16
  %9 = alloca %struct.student, align 4
  store i32 0, i32* %1, align 4
  %10 = call i32 (i8*, ...) @__isoc99_scanf(i8* getelementptr inbounds ([3 x i8], [3 x i8]* @.str, i64 0, i64 0), i32* %2)
  store i32 0, i32* %7, align 4
  br label %11

11:                                               ; preds = %44, %0
  %12 = load i32, i32* %7, align 4
  %13 = load i32, i32* %2, align 4
  %14 = icmp slt i32 %12, %13
  br i1 %14, label %15, label %47

15:                                               ; preds = %11
  %16 = load i32, i32* %7, align 4
  %17 = sext i32 %16 to i64
  %18 = getelementptr inbounds [100000 x %struct.student], [100000 x %struct.student]* %8, i64 0, i64 %17
  %19 = getelementptr inbounds %struct.student, %struct.student* %18, i32 0, i32 0
  %20 = load i32, i32* %7, align 4
  %21 = sext i32 %20 to i64
  %22 = getelementptr inbounds [100000 x %struct.student], [100000 x %struct.student]* %8, i64 0, i64 %21
  %23 = getelementptr inbounds %struct.student, %struct.student* %22, i32 0, i32 1
  %24 = load i32, i32* %7, align 4
  %25 = sext i32 %24 to i64
  %26 = getelementptr inbounds [100000 x %struct.student], [100000 x %struct.student]* %8, i64 0, i64 %25
  %27 = getelementptr inbounds %struct.student, %struct.student* %26, i32 0, i32 2
  %28 = call i32 (i8*, ...) @__isoc99_scanf(i8* getelementptr inbounds ([9 x i8], [9 x i8]* @.str.1, i64 0, i64 0), i32* %19, i32* %23, i32* %27)
  %29 = load i32, i32* %7, align 4
  %30 = sext i32 %29 to i64
  %31 = getelementptr inbounds [100000 x %struct.student], [100000 x %struct.student]* %8, i64 0, i64 %30
  %32 = getelementptr inbounds %struct.student, %struct.student* %31, i32 0, i32 1
  %33 = load i32, i32* %32, align 4
  %34 = load i32, i32* %7, align 4
  %35 = sext i32 %34 to i64
  %36 = getelementptr inbounds [100000 x %struct.student], [100000 x %struct.student]* %8, i64 0, i64 %35
  %37 = getelementptr inbounds %struct.student, %struct.student* %36, i32 0, i32 2
  %38 = load i32, i32* %37, align 8
  %39 = add nsw i32 %33, %38
  %40 = load i32, i32* %7, align 4
  %41 = sext i32 %40 to i64
  %42 = getelementptr inbounds [100000 x %struct.student], [100000 x %struct.student]* %8, i64 0, i64 %41
  %43 = getelementptr inbounds %struct.student, %struct.student* %42, i32 0, i32 3
  store i32 %39, i32* %43, align 4
  br label %44

44:                                               ; preds = %15
  %45 = load i32, i32* %7, align 4
  %46 = add nsw i32 %45, 1
  store i32 %46, i32* %7, align 4
  br label %11

47:                                               ; preds = %11
  store i32 0, i32* %4, align 4
  br label %48

48:                                               ; preds = %170, %47
  %49 = load i32, i32* %4, align 4
  %50 = icmp slt i32 %49, 3
  br i1 %50, label %51, label %173

51:                                               ; preds = %48
  store i32 0, i32* %3, align 4
  br label %52

52:                                               ; preds = %166, %51
  %53 = load i32, i32* %3, align 4
  %54 = load i32, i32* %2, align 4
  %55 = sub nsw i32 %54, 1
  %56 = load i32, i32* %4, align 4
  %57 = sub nsw i32 %55, %56
  %58 = icmp slt i32 %53, %57
  br i1 %58, label %59, label %169

59:                                               ; preds = %52
  %60 = load i32, i32* %3, align 4
  %61 = sext i32 %60 to i64
  %62 = getelementptr inbounds [100000 x %struct.student], [100000 x %struct.student]* %8, i64 0, i64 %61
  %63 = getelementptr inbounds %struct.student, %struct.student* %62, i32 0, i32 3
  %64 = load i32, i32* %63, align 4
  %65 = load i32, i32* %3, align 4
  %66 = add nsw i32 %65, 1
  %67 = sext i32 %66 to i64
  %68 = getelementptr inbounds [100000 x %struct.student], [100000 x %struct.student]* %8, i64 0, i64 %67
  %69 = getelementptr inbounds %struct.student, %struct.student* %68, i32 0, i32 3
  %70 = load i32, i32* %69, align 4
  %71 = icmp sge i32 %64, %70
  br i1 %71, label %72, label %165

72:                                               ; preds = %59
  %73 = load i32, i32* %3, align 4
  %74 = sext i32 %73 to i64
  %75 = getelementptr inbounds [100000 x %struct.student], [100000 x %struct.student]* %8, i64 0, i64 %74
  %76 = getelementptr inbounds %struct.student, %struct.student* %75, i32 0, i32 0
  %77 = load i32, i32* %76, align 16
  %78 = getelementptr inbounds %struct.student, %struct.student* %9, i32 0, i32 0
  store i32 %77, i32* %78, align 4
  %79 = load i32, i32* %3, align 4
  %80 = sext i32 %79 to i64
  %81 = getelementptr inbounds [100000 x %struct.student], [100000 x %struct.student]* %8, i64 0, i64 %80
  %82 = getelementptr inbounds %struct.student, %struct.student* %81, i32 0, i32 1
  %83 = load i32, i32* %82, align 4
  %84 = getelementptr inbounds %struct.student, %struct.student* %9, i32 0, i32 1
  store i32 %83, i32* %84, align 4
  %85 = load i32, i32* %3, align 4
  %86 = sext i32 %85 to i64
  %87 = getelementptr inbounds [100000 x %struct.student], [100000 x %struct.student]* %8, i64 0, i64 %86
  %88 = getelementptr inbounds %struct.student, %struct.student* %87, i32 0, i32 2
  %89 = load i32, i32* %88, align 8
  %90 = getelementptr inbounds %struct.student, %struct.student* %9, i32 0, i32 2
  store i32 %89, i32* %90, align 4
  %91 = load i32, i32* %3, align 4
  %92 = sext i32 %91 to i64
  %93 = getelementptr inbounds [100000 x %struct.student], [100000 x %struct.student]* %8, i64 0, i64 %92
  %94 = getelementptr inbounds %struct.student, %struct.student* %93, i32 0, i32 3
  %95 = load i32, i32* %94, align 4
  %96 = getelementptr inbounds %struct.student, %struct.student* %9, i32 0, i32 3
  store i32 %95, i32* %96, align 4
  %97 = load i32, i32* %3, align 4
  %98 = add nsw i32 %97, 1
  %99 = sext i32 %98 to i64
  %100 = getelementptr inbounds [100000 x %struct.student], [100000 x %struct.student]* %8, i64 0, i64 %99
  %101 = getelementptr inbounds %struct.student, %struct.student* %100, i32 0, i32 0
  %102 = load i32, i32* %101, align 16
  %103 = load i32, i32* %3, align 4
  %104 = sext i32 %103 to i64
  %105 = getelementptr inbounds [100000 x %struct.student], [100000 x %struct.student]* %8, i64 0, i64 %104
  %106 = getelementptr inbounds %struct.student, %struct.student* %105, i32 0, i32 0
  store i32 %102, i32* %106, align 16
  %107 = load i32, i32* %3, align 4
  %108 = add nsw i32 %107, 1
  %109 = sext i32 %108 to i64
  %110 = getelementptr inbounds [100000 x %struct.student], [100000 x %struct.student]* %8, i64 0, i64 %109
  %111 = getelementptr inbounds %struct.student, %struct.student* %110, i32 0, i32 1
  %112 = load i32, i32* %111, align 4
  %113 = load i32, i32* %3, align 4
  %114 = sext i32 %113 to i64
  %115 = getelementptr inbounds [100000 x %struct.student], [100000 x %struct.student]* %8, i64 0, i64 %114
  %116 = getelementptr inbounds %struct.student, %struct.student* %115, i32 0, i32 1
  store i32 %112, i32* %116, align 4
  %117 = load i32, i32* %3, align 4
  %118 = add nsw i32 %117, 1
  %119 = sext i32 %118 to i64
  %120 = getelementptr inbounds [100000 x %struct.student], [100000 x %struct.student]* %8, i64 0, i64 %119
  %121 = getelementptr inbounds %struct.student, %struct.student* %120, i32 0, i32 2
  %122 = load i32, i32* %121, align 8
  %123 = load i32, i32* %3, align 4
  %124 = sext i32 %123 to i64
  %125 = getelementptr inbounds [100000 x %struct.student], [100000 x %struct.student]* %8, i64 0, i64 %124
  %126 = getelementptr inbounds %struct.student, %struct.student* %125, i32 0, i32 2
  store i32 %122, i32* %126, align 8
  %127 = load i32, i32* %3, align 4
  %128 = add nsw i32 %127, 1
  %129 = sext i32 %128 to i64
  %130 = getelementptr inbounds [100000 x %struct.student], [100000 x %struct.student]* %8, i64 0, i64 %129
  %131 = getelementptr inbounds %struct.student, %struct.student* %130, i32 0, i32 3
  %132 = load i32, i32* %131, align 4
  %133 = load i32, i32* %3, align 4
  %134 = sext i32 %133 to i64
  %135 = getelementptr inbounds [100000 x %struct.student], [100000 x %struct.student]* %8, i64 0, i64 %134
  %136 = getelementptr inbounds %struct.student, %struct.student* %135, i32 0, i32 3
  store i32 %132, i32* %136, align 4
  %137 = getelementptr inbounds %struct.student, %struct.student* %9, i32 0, i32 0
  %138 = load i32, i32* %137, align 4
  %139 = load i32, i32* %3, align 4
  %140 = add nsw i32 %139, 1
  %141 = sext i32 %140 to i64
  %142 = getelementptr inbounds [100000 x %struct.student], [100000 x %struct.student]* %8, i64 0, i64 %141
  %143 = getelementptr inbounds %struct.student, %struct.student* %142, i32 0, i32 0
  store i32 %138, i32* %143, align 16
  %144 = getelementptr inbounds %struct.student, %struct.student* %9, i32 0, i32 1
  %145 = load i32, i32* %144, align 4
  %146 = load i32, i32* %3, align 4
  %147 = add nsw i32 %146, 1
  %148 = sext i32 %147 to i64
  %149 = getelementptr inbounds [100000 x %struct.student], [100000 x %struct.student]* %8, i64 0, i64 %148
  %150 = getelementptr inbounds %struct.student, %struct.student* %149, i32 0, i32 1
  store i32 %145, i32* %150, align 4
  %151 = getelementptr inbounds %struct.student, %struct.student* %9, i32 0, i32 2
  %152 = load i32, i32* %151, align 4
  %153 = load i32, i32* %3, align 4
  %154 = add nsw i32 %153, 1
  %155 = sext i32 %154 to i64
  %156 = getelementptr inbounds [100000 x %struct.student], [100000 x %struct.student]* %8, i64 0, i64 %155
  %157 = getelementptr inbounds %struct.student, %struct.student* %156, i32 0, i32 2
  store i32 %152, i32* %157, align 8
  %158 = getelementptr inbounds %struct.student, %struct.student* %9, i32 0, i32 3
  %159 = load i32, i32* %158, align 4
  %160 = load i32, i32* %3, align 4
  %161 = add nsw i32 %160, 1
  %162 = sext i32 %161 to i64
  %163 = getelementptr inbounds [100000 x %struct.student], [100000 x %struct.student]* %8, i64 0, i64 %162
  %164 = getelementptr inbounds %struct.student, %struct.student* %163, i32 0, i32 3
  store i32 %159, i32* %164, align 4
  br label %165

165:                                              ; preds = %72, %59
  br label %166

166:                                              ; preds = %165
  %167 = load i32, i32* %3, align 4
  %168 = add nsw i32 %167, 1
  store i32 %168, i32* %3, align 4
  br label %52

169:                                              ; preds = %52
  br label %170

170:                                              ; preds = %169
  %171 = load i32, i32* %4, align 4
  %172 = add nsw i32 %171, 1
  store i32 %172, i32* %4, align 4
  br label %48

173:                                              ; preds = %48
  %174 = load i32, i32* %2, align 4
  %175 = sub nsw i32 %174, 1
  store i32 %175, i32* %5, align 4
  br label %176

176:                                              ; preds = %193, %173
  %177 = load i32, i32* %5, align 4
  %178 = load i32, i32* %2, align 4
  %179 = sub nsw i32 %178, 4
  %180 = icmp sgt i32 %177, %179
  br i1 %180, label %181, label %196

181:                                              ; preds = %176
  %182 = load i32, i32* %5, align 4
  %183 = sext i32 %182 to i64
  %184 = getelementptr inbounds [100000 x %struct.student], [100000 x %struct.student]* %8, i64 0, i64 %183
  %185 = getelementptr inbounds %struct.student, %struct.student* %184, i32 0, i32 0
  %186 = load i32, i32* %185, align 16
  %187 = load i32, i32* %5, align 4
  %188 = sext i32 %187 to i64
  %189 = getelementptr inbounds [100000 x %struct.student], [100000 x %struct.student]* %8, i64 0, i64 %188
  %190 = getelementptr inbounds %struct.student, %struct.student* %189, i32 0, i32 3
  %191 = load i32, i32* %190, align 4
  %192 = call i32 (i8*, ...) @printf(i8* getelementptr inbounds ([7 x i8], [7 x i8]* @.str.2, i64 0, i64 0), i32 %186, i32 %191)
  br label %193

193:                                              ; preds = %181
  %194 = load i32, i32* %5, align 4
  %195 = add nsw i32 %194, -1
  store i32 %195, i32* %5, align 4
  br label %176

196:                                              ; preds = %176
  %197 = load i32, i32* %1, align 4
  ret i32 %197
}

declare dso_local i32 @__isoc99_scanf(i8*, ...) #1

declare dso_local i32 @printf(i8*, ...) #1


!llvm.module.flags = !{!0}
!llvm.ident = !{!1}

!0 = !{i32 1, !"wchar_size", i32 4}
!1 = !{!"clang version 10.0.0-4ubuntu1 "}
